(lp0
(dp1
S'graph_rep_2'
p2
I2
sS'ase_slab_function'
p3
case.build.surface
fcc111
p4
sS'supp_rep_2'
p5
I1
sS'root_cut'
p6
I13
sS'cell_geom'
p7
S'hex'
p8
sS'surface'
p9
S'111'
p10
sS'bulk'
p11
S'fcc'
p12
sS'lattice_constant'
p13
F3.4741
sS'supp_rep_1'
p14
I1
sS'graph_rep_1'
p15
I2
sS'strain_2'
p16
cnumpy.core.multiarray
scalar
p17
(cnumpy
dtype
p18
(S'f8'
p19
I0
I1
tp20
Rp21
(I3
S'<'
p22
NNNI-1
I-1
I0
tp23
bS'"o\xccVe\x81\r@'
p24
tp25
Rp26
sS'strain_1'
p27
g26
sS'latt_vect_1'
p28
g17
(g21
S'\xc4\xc0\xc6\xb6\xe9\xb6!@'
p29
tp30
Rp31
sS'latt_vect_2'
p32
g17
(g21
S'\xc4\xc0\xc6\xb6\xe9\xb6!@'
p33
tp34
Rp35
sa.